target datalayout = "e-m:e-p270:32:32-p271:32:32-p272:64:64-i64:64-i128:128-f80:128-n8:16:32:64-S128"
target triple = "x86_64-pc-linux-gnu"

%struct.FunctionCallInfoBaseData = type { ptr, ptr, ptr, i32, i8, i16, [0 x %struct.NullableDatum] }
%struct.NullableDatum = type { i64, i8 }

; Function Attrs: inlinehint nounwind uwtable
define internal i64 @Int32GetDatum(i32 noundef %0) #2 {
  %2 = alloca i32, align 4
  store i32 %0, ptr %2, align 4
  %3 = load i32, ptr %2, align 4
  %4 = sext i32 %3 to i64
  ret i64 %4
}

; Function Attrs: inlinehint nounwind uwtable
define internal i64 @DatumGetInt64(i64 noundef %0) #2 {
  %2 = alloca i64, align 8
  store i64 %0, ptr %2, align 8
  %3 = load i64, ptr %2, align 8
  ret i64 %3
}

; Function Attrs: inlinehint nounwind uwtable
define internal signext i16 @DatumGetInt16(i64 noundef %0) #2 {
  %2 = alloca i64, align 8
  store i64 %0, ptr %2, align 8
  %3 = load i64, ptr %2, align 8
  %4 = trunc i64 %3 to i16
  ret i16 %4
}

; Function Attrs: nounwind uwtable
define dso_local i64 @btint28cmp(ptr noundef %0) #0 {
  %2 = alloca i64, align 8
  %3 = alloca ptr, align 8
  %4 = alloca i16, align 2
  %5 = alloca i64, align 8
  %6 = alloca i32, align 4
  store ptr %0, ptr %3, align 8
  call void @llvm.lifetime.start.p0(i64 2, ptr %4) #4
  %7 = load ptr, ptr %3, align 8
  %8 = getelementptr inbounds nuw %struct.FunctionCallInfoBaseData, ptr %7, i32 0, i32 6
  %9 = getelementptr inbounds [0 x %struct.NullableDatum], ptr %8, i64 0, i64 0
  %10 = getelementptr inbounds nuw %struct.NullableDatum, ptr %9, i32 0, i32 0
  %11 = load i64, ptr %10, align 8
  %12 = call signext i16 @DatumGetInt16(i64 noundef %11)
  store i16 %12, ptr %4, align 2
  call void @llvm.lifetime.start.p0(i64 8, ptr %5) #4
  %13 = load ptr, ptr %3, align 8
  %14 = getelementptr inbounds nuw %struct.FunctionCallInfoBaseData, ptr %13, i32 0, i32 6
  %15 = getelementptr inbounds [0 x %struct.NullableDatum], ptr %14, i64 0, i64 1
  %16 = getelementptr inbounds nuw %struct.NullableDatum, ptr %15, i32 0, i32 0
  %17 = load i64, ptr %16, align 8
  %18 = call i64 @DatumGetInt64(i64 noundef %17)
  store i64 %18, ptr %5, align 8
  %19 = load i16, ptr %4, align 2
  %20 = sext i16 %19 to i64
  %21 = load i64, ptr %5, align 8
  %22 = icmp sgt i64 %20, %21
  br i1 %22, label %23, label %25

23:                                               ; preds = %1
  %24 = call i64 @Int32GetDatum(i32 noundef 1)
  store i64 %24, ptr %2, align 8
  store i32 1, ptr %6, align 4
  br label %34

25:                                               ; preds = %1
  %26 = load i16, ptr %4, align 2
  %27 = sext i16 %26 to i64
  %28 = load i64, ptr %5, align 8
  %29 = icmp eq i64 %27, %28
  br i1 %29, label %30, label %32

30:                                               ; preds = %25
  %31 = call i64 @Int32GetDatum(i32 noundef 0)
  store i64 %31, ptr %2, align 8
  store i32 1, ptr %6, align 4
  br label %34

32:                                               ; preds = %25
  %33 = call i64 @Int32GetDatum(i32 noundef -1)
  store i64 %33, ptr %2, align 8
  store i32 1, ptr %6, align 4
  br label %34

34:                                               ; preds = %32, %30, %23
  call void @llvm.lifetime.end.p0(i64 8, ptr %5) #4
  call void @llvm.lifetime.end.p0(i64 2, ptr %4) #4
  %35 = load i64, ptr %2, align 8
  ret i64 %35
}